; Function Attrs: mustprogress nofree norecurse nosync nounwind willreturn memory(readwrite, inaccessiblemem: none) uwtable
define hidden void @_ZN9Assembler5sarxlE8RegisterS0_S0_(ptr noundef nonnull align 8 dereferenceable(40) %0, i32 %1, i32 %2, i32 %3) local_unnamed_addr #8 align 2 {
  %5 = alloca %class.InstructionAttr, align 8
  store i8 0, ptr %5, align 8
  %6 = getelementptr inbounds i8, ptr %5, i64 1
  %7 = load i32, ptr @UseAVX, align 4
  %8 = icmp slt i32 %7, 3
  %9 = zext i1 %8 to i8
  store i8 %9, ptr %6, align 1
  %10 = getelementptr inbounds i8, ptr %5, i64 2
  store <4 x i8> <i8 1, i8 1, i8 0, i8 0>, ptr %10, align 2
  %11 = getelementptr inbounds i8, ptr %5, i64 6
  store i8 1, ptr %11, align 2
  %12 = getelementptr inbounds i8, ptr %5, i64 7
  store i8 0, ptr %12, align 1
  %13 = getelementptr inbounds i8, ptr %5, i64 8
  store <4 x i32> <i32 0, i32 24, i32 4, i32 0>, ptr %13, align 8
  %14 = getelementptr inbounds i8, ptr %5, i64 24
  store i32 0, ptr %14, align 8
  %15 = getelementptr inbounds i8, ptr %5, i64 32
  store ptr null, ptr %15, align 8
  %16 = sext i32 %1 to i64
  %17 = getelementptr inbounds %"class.Register::RegisterImpl", ptr getelementptr inbounds (i8, ptr @all_RegisterImpls, i64 1), i64 %16
  %18 = ptrtoint ptr %17 to i64
  %19 = trunc i64 %18 to i32
  %20 = sub i32 %19, ptrtoint (ptr getelementptr inbounds (i8, ptr @all_RegisterImpls, i64 1) to i32)
  %21 = sext i32 %3 to i64
  %22 = getelementptr inbounds %"class.Register::RegisterImpl", ptr getelementptr inbounds (i8, ptr @all_RegisterImpls, i64 1), i64 %21
  %23 = ptrtoint ptr %22 to i64
  %24 = trunc i64 %23 to i32
  %25 = sub i32 %24, ptrtoint (ptr getelementptr inbounds (i8, ptr @all_RegisterImpls, i64 1) to i32)
  %26 = sext i32 %2 to i64
  %27 = getelementptr inbounds %"class.Register::RegisterImpl", ptr getelementptr inbounds (i8, ptr @all_RegisterImpls, i64 1), i64 %26
  %28 = ptrtoint ptr %27 to i64
  %29 = trunc i64 %28 to i32
  %30 = sub i32 %29, ptrtoint (ptr getelementptr inbounds (i8, ptr @all_RegisterImpls, i64 1) to i32)
  %31 = call noundef i32 @_ZN9Assembler21vex_prefix_and_encodeEiiiNS_13VexSimdPrefixENS_9VexOpcodeEP15InstructionAttrb(ptr noundef nonnull align 8 dereferenceable(40) %0, i32 noundef %20, i32 noundef %25, i32 noundef %30, i32 noundef 2, i32 noundef 2, ptr noundef nonnull %5, i1 noundef zeroext true)
  %32 = getelementptr inbounds i8, ptr %0, i64 8
  %33 = load ptr, ptr %32, align 8
  %34 = trunc nuw nsw i32 %31 to i8
  %.0.i2.i = or disjoint i8 %34, -64
  %35 = getelementptr inbounds i8, ptr %33, i64 16
  %36 = load ptr, ptr %35, align 8
  %37 = getelementptr inbounds i8, ptr %36, i64 1
  store i8 -9, ptr %36, align 1
  %38 = getelementptr inbounds i8, ptr %36, i64 2
  store i8 %.0.i2.i, ptr %37, align 1
  store ptr %38, ptr %35, align 8
  %39 = load ptr, ptr %15, align 8
  %.not.i = icmp eq ptr %39, null
  br i1 %.not.i, label %_ZN15InstructionAttrD2Ev.exit, label %40

40:                                               ; preds = %4
  %41 = getelementptr inbounds i8, ptr %39, i64 32
  store ptr null, ptr %41, align 8
  br label %_ZN15InstructionAttrD2Ev.exit

_ZN15InstructionAttrD2Ev.exit:                    ; preds = %4, %40
  ret void
}